target datalayout = "e-m:e-p270:32:32-p271:32:32-p272:64:64-i64:64-i128:128-f80:128-n8:16:32:64-S128"
target triple = "x86_64-pc-linux-gnu"

%"struct.std::array" = type { [54 x %"struct.open_spiel::tarok::Card"] }
%"struct.open_spiel::tarok::Card" = type { i32, i32, i32, %"class.std::__cxx11::basic_string", %"class.std::__cxx11::basic_string" }
%"class.std::__cxx11::basic_string" = type { %"struct.std::__cxx11::basic_string<char>::_Alloc_hider", i64, %union.anon }
%"struct.std::__cxx11::basic_string<char>::_Alloc_hider" = type { ptr }
%union.anon = type { i64, [8 x i8] }

@__dso_handle = external hidden global i8
@_ZN10open_spiel5tarok9TarokGame10card_deck_E = linkonce_odr global %"struct.std::array" zeroinitializer, comdat, align 8
@_ZGVN10open_spiel5tarok9TarokGame10card_deck_E = linkonce_odr global i64 0, comdat($_ZN10open_spiel5tarok9TarokGame10card_deck_E), align 8

; Function Attrs: uwtable
define internal void @__cxx_global_var_init.1() #0 section ".text.startup" comdat($_ZN10open_spiel5tarok9TarokGame10card_deck_E) personality ptr @__gxx_personality_v0 {
  %1 = alloca ptr, align 8
  %2 = alloca i32, align 4
  %3 = load atomic i8, ptr @_ZGVN10open_spiel5tarok9TarokGame10card_deck_E acquire, align 8
  %4 = icmp eq i8 %3, 0
  br i1 %4, label %5, label %11

5:                                                ; preds = %0
  %6 = call i32 @__cxa_guard_acquire(ptr @_ZGVN10open_spiel5tarok9TarokGame10card_deck_E) #3
  %7 = icmp ne i32 %6, 0
  br i1 %7, label %8, label %11

8:                                                ; preds = %5
  invoke void @_ZN10open_spiel5tarok18InitializeCardDeckEv(ptr dead_on_unwind writable sret(%"struct.std::array") align 8 @_ZN10open_spiel5tarok9TarokGame10card_deck_E)
          to label %9 unwind label %12

9:                                                ; preds = %8
  %10 = call i32 @__cxa_atexit(ptr @_ZNSt5arrayIN10open_spiel5tarok4CardELm54EED2Ev, ptr @_ZN10open_spiel5tarok9TarokGame10card_deck_E, ptr @__dso_handle) #3
  call void @__cxa_guard_release(ptr @_ZGVN10open_spiel5tarok9TarokGame10card_deck_E) #3
  br label %11

11:                                               ; preds = %9, %5, %0
  ret void

12:                                               ; preds = %8
  %13 = landingpad { ptr, i32 }
          cleanup
  %14 = extractvalue { ptr, i32 } %13, 0
  store ptr %14, ptr %1, align 8
  %15 = extractvalue { ptr, i32 } %13, 1
  store i32 %15, ptr %2, align 4
  call void @__cxa_guard_abort(ptr @_ZGVN10open_spiel5tarok9TarokGame10card_deck_E) #3
  br label %16

16:                                               ; preds = %12
  %17 = load ptr, ptr %1, align 8
  %18 = load i32, ptr %2, align 4
  %19 = insertvalue { ptr, i32 } poison, ptr %17, 0
  %20 = insertvalue { ptr, i32 } %19, i32 %18, 1
  resume { ptr, i32 } %20
}